; Function Attrs: nounwind uwtable
define internal noundef i32 @wsaud_write_trailer(ptr noundef readonly captures(none) %0) #0 {
  %2 = getelementptr inbounds nuw i8, ptr %0, i64 32
  %3 = load ptr, ptr %2, align 8, !tbaa !26
  %4 = getelementptr inbounds nuw i8, ptr %0, i64 24
  %5 = load ptr, ptr %4, align 8, !tbaa !27
  %6 = tail call i64 @avio_seek(ptr noundef %3, i64 noundef 2, i32 noundef 0) #2
  %7 = getelementptr inbounds nuw i8, ptr %5, i64 4
  %8 = load i32, ptr %7, align 4, !tbaa !30
  tail call void @avio_wl32(ptr noundef %3, i32 noundef %8) #2
  %9 = load i32, ptr %5, align 4, !tbaa !28
  tail call void @avio_wl32(ptr noundef %3, i32 noundef %9) #2
  ret i32 0
}